target datalayout = "e-m:e-p270:32:32-p271:32:32-p272:64:64-i64:64-i128:128-f80:128-n8:16:32:64-S128"
target triple = "x86_64-pc-linux-gnu"

%"class.LIEF::MachO::RelocationFixup" = type { %"class.LIEF::MachO::Relocation", i32, i64, i32, i32, %union.anon.38 }
%"class.LIEF::MachO::Relocation" = type { %"class.LIEF::Relocation.base", ptr, i8, i32, ptr, ptr }
%"class.LIEF::Relocation.base" = type <{ %"class.LIEF::Object", i64, i8 }>
%"class.LIEF::Object" = type { ptr }
%union.anon.38 = type { ptr }

; Function Attrs: mustprogress nounwind uwtable
define noundef nonnull align 8 dereferenceable(88) ptr @_ZN4LIEF5MachO15RelocationFixupaSERKS1_(ptr noundef nonnull align 8 dereferenceable(88) %0, ptr noundef nonnull align 8 dereferenceable(88) %1) #1 align 2 {
  %3 = alloca ptr, align 8
  %4 = alloca ptr, align 8
  %5 = alloca ptr, align 8
  store ptr %0, ptr %4, align 8, !tbaa !15
  store ptr %1, ptr %5, align 8, !tbaa !15
  %6 = load ptr, ptr %4, align 8
  %7 = load ptr, ptr %5, align 8, !tbaa !15
  %8 = icmp eq ptr %6, %7
  br i1 %8, label %9, label %10

9:                                                ; preds = %2
  store ptr %6, ptr %3, align 8
  br label %55

10:                                               ; preds = %2
  %11 = load ptr, ptr %5, align 8, !tbaa !15
  %12 = getelementptr inbounds nuw %"class.LIEF::MachO::RelocationFixup", ptr %11, i32 0, i32 1
  %13 = load i32, ptr %12, align 8, !tbaa !32
  %14 = getelementptr inbounds nuw %"class.LIEF::MachO::RelocationFixup", ptr %6, i32 0, i32 1
  store i32 %13, ptr %14, align 8, !tbaa !32
  %15 = load ptr, ptr %5, align 8, !tbaa !15
  %16 = getelementptr inbounds nuw %"class.LIEF::MachO::RelocationFixup", ptr %15, i32 0, i32 2
  %17 = load i64, ptr %16, align 8, !tbaa !33
  %18 = getelementptr inbounds nuw %"class.LIEF::MachO::RelocationFixup", ptr %6, i32 0, i32 2
  store i64 %17, ptr %18, align 8, !tbaa !33
  %19 = load ptr, ptr %5, align 8, !tbaa !15
  %20 = getelementptr inbounds nuw %"class.LIEF::MachO::RelocationFixup", ptr %19, i32 0, i32 3
  %21 = load i32, ptr %20, align 8, !tbaa !34
  %22 = getelementptr inbounds nuw %"class.LIEF::MachO::RelocationFixup", ptr %6, i32 0, i32 3
  store i32 %21, ptr %22, align 8, !tbaa !34
  %23 = load ptr, ptr %5, align 8, !tbaa !15
  %24 = getelementptr inbounds nuw %"class.LIEF::MachO::RelocationFixup", ptr %23, i32 0, i32 4
  %25 = load i32, ptr %24, align 4, !tbaa !19
  %26 = getelementptr inbounds nuw %"class.LIEF::MachO::RelocationFixup", ptr %6, i32 0, i32 4
  store i32 %25, ptr %26, align 4, !tbaa !19
  %27 = getelementptr inbounds nuw %"class.LIEF::MachO::RelocationFixup", ptr %6, i32 0, i32 4
  %28 = load i32, ptr %27, align 4, !tbaa !19
  switch i32 %28, label %54 [
    i32 1, label %29
    i32 2, label %35
    i32 3, label %41
    i32 4, label %47
    i32 0, label %53
  ]

29:                                               ; preds = %10
  %30 = call noalias noundef nonnull ptr @_Znwm(i64 noundef 8) #21
  %31 = load ptr, ptr %5, align 8, !tbaa !15
  %32 = getelementptr inbounds nuw %"class.LIEF::MachO::RelocationFixup", ptr %31, i32 0, i32 5
  %33 = load ptr, ptr %32, align 8, !tbaa !10
  call void @llvm.memcpy.p0.p0.i64(ptr align 8 %30, ptr align 8 %33, i64 8, i1 false), !tbaa.struct !42
  %34 = getelementptr inbounds nuw %"class.LIEF::MachO::RelocationFixup", ptr %6, i32 0, i32 5
  store ptr %30, ptr %34, align 8, !tbaa !10
  br label %54

35:                                               ; preds = %10
  %36 = call noalias noundef nonnull ptr @_Znwm(i64 noundef 8) #21
  %37 = load ptr, ptr %5, align 8, !tbaa !15
  %38 = getelementptr inbounds nuw %"class.LIEF::MachO::RelocationFixup", ptr %37, i32 0, i32 5
  %39 = load ptr, ptr %38, align 8, !tbaa !10
  call void @llvm.memcpy.p0.p0.i64(ptr align 8 %36, ptr align 8 %39, i64 8, i1 false), !tbaa.struct !42
  %40 = getelementptr inbounds nuw %"class.LIEF::MachO::RelocationFixup", ptr %6, i32 0, i32 5
  store ptr %36, ptr %40, align 8, !tbaa !10
  br label %54

41:                                               ; preds = %10
  %42 = call noalias noundef nonnull ptr @_Znwm(i64 noundef 8) #21
  %43 = load ptr, ptr %5, align 8, !tbaa !15
  %44 = getelementptr inbounds nuw %"class.LIEF::MachO::RelocationFixup", ptr %43, i32 0, i32 5
  %45 = load ptr, ptr %44, align 8, !tbaa !10
  call void @llvm.memcpy.p0.p0.i64(ptr align 8 %42, ptr align 8 %45, i64 8, i1 false), !tbaa.struct !42
  %46 = getelementptr inbounds nuw %"class.LIEF::MachO::RelocationFixup", ptr %6, i32 0, i32 5
  store ptr %42, ptr %46, align 8, !tbaa !10
  br label %54

47:                                               ; preds = %10
  %48 = call noalias noundef nonnull ptr @_Znwm(i64 noundef 4) #21
  %49 = load ptr, ptr %5, align 8, !tbaa !15
  %50 = getelementptr inbounds nuw %"class.LIEF::MachO::RelocationFixup", ptr %49, i32 0, i32 5
  %51 = load ptr, ptr %50, align 8, !tbaa !10
  call void @llvm.memcpy.p0.p0.i64(ptr align 4 %48, ptr align 4 %51, i64 4, i1 false), !tbaa.struct !43
  %52 = getelementptr inbounds nuw %"class.LIEF::MachO::RelocationFixup", ptr %6, i32 0, i32 5
  store ptr %48, ptr %52, align 8, !tbaa !10
  br label %54

53:                                               ; preds = %10
  br label %54

54:                                               ; preds = %53, %10, %47, %41, %35, %29
  store ptr %6, ptr %3, align 8
  br label %55

55:                                               ; preds = %54, %9
  %56 = load ptr, ptr %3, align 8
  ret ptr %56
}