; Function Attrs: mustprogress nounwind uwtable
define noundef nonnull align 8 dereferenceable(88) ptr @_ZN4LIEF5MachO15RelocationFixupaSERKS1_(ptr noundef nonnull returned writeonly align 8 dereferenceable(88) %0, ptr noundef nonnull readonly align 8 dereferenceable(88) %1) local_unnamed_addr #1 align 2 {
  %3 = icmp eq ptr %0, %1
  br i1 %3, label %38, label %4

4:                                                ; preds = %2
  %5 = getelementptr inbounds nuw i8, ptr %1, i64 56
  %6 = load i32, ptr %5, align 8, !tbaa !27
  %7 = getelementptr inbounds nuw i8, ptr %0, i64 56
  store i32 %6, ptr %7, align 8, !tbaa !27
  %8 = getelementptr inbounds nuw i8, ptr %1, i64 64
  %9 = load i64, ptr %8, align 8, !tbaa !28
  %10 = getelementptr inbounds nuw i8, ptr %0, i64 64
  store i64 %9, ptr %10, align 8, !tbaa !28
  %11 = getelementptr inbounds nuw i8, ptr %1, i64 72
  %12 = load i32, ptr %11, align 8, !tbaa !29
  %13 = getelementptr inbounds nuw i8, ptr %0, i64 72
  store i32 %12, ptr %13, align 8, !tbaa !29
  %14 = getelementptr inbounds nuw i8, ptr %1, i64 76
  %15 = load i32, ptr %14, align 4, !tbaa !6
  %16 = getelementptr inbounds nuw i8, ptr %0, i64 76
  store i32 %15, ptr %16, align 4, !tbaa !6
  switch i32 %15, label %38 [
    i32 1, label %17
    i32 2, label %22
    i32 3, label %27
    i32 4, label %32
  ]

17:                                               ; preds = %4
  %18 = tail call noalias noundef nonnull dereferenceable(8) ptr @_Znwm(i64 noundef 8) #25
  %19 = getelementptr inbounds nuw i8, ptr %1, i64 80
  %20 = load ptr, ptr %19, align 8, !tbaa !21
  %21 = load i64, ptr %20, align 8, !tbaa !21
  store i64 %21, ptr %18, align 8, !tbaa !21
  br label %.sink.split

22:                                               ; preds = %4
  %23 = tail call noalias noundef nonnull dereferenceable(8) ptr @_Znwm(i64 noundef 8) #25
  %24 = getelementptr inbounds nuw i8, ptr %1, i64 80
  %25 = load ptr, ptr %24, align 8, !tbaa !21
  %26 = load i64, ptr %25, align 8, !tbaa !21
  store i64 %26, ptr %23, align 8, !tbaa !21
  br label %.sink.split

27:                                               ; preds = %4
  %28 = tail call noalias noundef nonnull dereferenceable(8) ptr @_Znwm(i64 noundef 8) #25
  %29 = getelementptr inbounds nuw i8, ptr %1, i64 80
  %30 = load ptr, ptr %29, align 8, !tbaa !21
  %31 = load i64, ptr %30, align 8, !tbaa !21
  store i64 %31, ptr %28, align 8, !tbaa !21
  br label %.sink.split

32:                                               ; preds = %4
  %33 = tail call noalias noundef nonnull dereferenceable(4) ptr @_Znwm(i64 noundef 4) #25
  %34 = getelementptr inbounds nuw i8, ptr %1, i64 80
  %35 = load ptr, ptr %34, align 8, !tbaa !21
  %36 = load i32, ptr %35, align 4, !tbaa !21
  store i32 %36, ptr %33, align 4, !tbaa !21
  br label %.sink.split

.sink.split:                                      ; preds = %32, %27, %22, %17
  %.sink = phi ptr [ %18, %17 ], [ %23, %22 ], [ %28, %27 ], [ %33, %32 ]
  %37 = getelementptr inbounds nuw i8, ptr %0, i64 80
  store ptr %.sink, ptr %37, align 8, !tbaa !21
  br label %38

38:                                               ; preds = %.sink.split, %4, %2
  ret ptr %0
}